target datalayout = "e-m:e-p270:32:32-p271:32:32-p272:64:64-i64:64-i128:128-f80:128-n8:16:32:64-S128"
target triple = "x86_64-pc-linux-gnu"

%struct.mbedtls_ssl_context = type { ptr, i32, i32, i32, i32, i32, ptr, ptr, ptr, ptr, ptr, ptr, ptr, ptr, ptr, ptr, ptr, ptr, ptr, ptr, ptr, ptr, ptr, ptr, ptr, ptr, ptr, ptr, ptr, ptr, ptr, ptr, ptr, i32, i64, i64, i16, i64, i64, i64, i64, i32, i32, i8, i8, i32, i8, ptr, ptr, ptr, ptr, ptr, ptr, ptr, i32, i64, i64, [8 x i8], i16, ptr, ptr, ptr, i64, i32, i64, [12 x i8], [12 x i8], [32 x i8], i8, i8, ptr, ptr, %union.mbedtls_ssl_user_data_t }
%union.mbedtls_ssl_user_data_t = type { i64 }
%struct.mbedtls_ssl_handshake_params = type { i8, i8, i8, i8, i8, i32, i8, i8, i8, i8, ptr, ptr, ptr, ptr, ptr, i8, i8, i8, i8, i16, i16, [20 x i16], ptr, ptr, %struct.mbedtls_dhm_context, %struct.mbedtls_ecdh_context, i16, i64, i32, i8, [1024 x i8], i64, ptr, ptr, i64, i16, ptr, ptr, ptr, ptr, %struct.anon, ptr, i16, i8, i32, i32, i32, ptr, ptr, ptr, i32, ptr, [8 x i8], i8, [32 x i8], i8, i16, %struct.mbedtls_md_context_t, %struct.mbedtls_md_context_t, i16, i8, %union.anon.1, [64 x i8], [1076 x i8], i64, i32, i32, i8, ptr, ptr, %union.anon.4, %struct.mbedtls_ssl_tls13_handshake_secrets, ptr, i64, ptr }
%struct.mbedtls_dhm_context = type { %struct.mbedtls_mpi, %struct.mbedtls_mpi, %struct.mbedtls_mpi, %struct.mbedtls_mpi, %struct.mbedtls_mpi, %struct.mbedtls_mpi, %struct.mbedtls_mpi, %struct.mbedtls_mpi, %struct.mbedtls_mpi, %struct.mbedtls_mpi }
%struct.mbedtls_mpi = type { ptr, i16, i16 }
%struct.mbedtls_ecdh_context = type { i8, i32, i32, %union.anon }
%union.anon = type { %struct.mbedtls_ecdh_context_mbed }
%struct.mbedtls_ecdh_context_mbed = type { %struct.mbedtls_ecp_group, %struct.mbedtls_mpi, %struct.mbedtls_ecp_point, %struct.mbedtls_ecp_point, %struct.mbedtls_mpi }
%struct.mbedtls_ecp_group = type { i32, %struct.mbedtls_mpi, %struct.mbedtls_mpi, %struct.mbedtls_mpi, %struct.mbedtls_ecp_point, %struct.mbedtls_mpi, i64, i64, i32, ptr, ptr, ptr, ptr, ptr, i64 }
%struct.mbedtls_ecp_point = type { %struct.mbedtls_mpi, %struct.mbedtls_mpi, %struct.mbedtls_mpi }
%struct.anon = type { i64, i8, [4 x %struct.mbedtls_ssl_hs_buffer], %struct.anon.0 }
%struct.mbedtls_ssl_hs_buffer = type { i8, ptr, i64 }
%struct.anon.0 = type { ptr, i64, i32 }
%struct.mbedtls_md_context_t = type { ptr, ptr, ptr }
%union.anon.1 = type { %struct.anon.2 }
%struct.anon.2 = type { i8, [64 x i8], i64 }
%union.anon.4 = type { [64 x i8] }
%struct.mbedtls_ssl_tls13_handshake_secrets = type { [64 x i8], [64 x i8] }

@.str = private unnamed_addr constant [130 x i8] c"generated/home/dtcxzyw/WorkSpace/Projects/compilers/llvm-opt-benchmark/bench/lief/bench_build/mbed_src/library/ssl_tls13_server.c\00", align 1
@.str.5 = private unnamed_addr constant [30 x i8] c"skip parse certificate verify\00", align 1
@.str.126 = private unnamed_addr constant [68 x i8] c"Switch to handshake keys for inbound traffic ( K_recv = handshake )\00", align 1
@.str.127 = private unnamed_addr constant [23 x i8] c"skip parse certificate\00", align 1

; Function Attrs: inlinehint nounwind uwtable
define internal void @mbedtls_ssl_handshake_set_state(ptr noundef %0, i32 noundef %1) #3 {
  %3 = alloca ptr, align 8
  %4 = alloca i32, align 4
  store ptr %0, ptr %3, align 8, !tbaa !3
  store i32 %1, ptr %4, align 4, !tbaa !8
  %5 = load i32, ptr %4, align 4, !tbaa !8
  %6 = load ptr, ptr %3, align 8, !tbaa !3
  %7 = getelementptr inbounds nuw %struct.mbedtls_ssl_context, ptr %6, i32 0, i32 1
  store i32 %5, ptr %7, align 8, !tbaa !10
  ret void
}

; Function Attrs: nounwind uwtable
define internal void @ssl_tls13_prepare_for_handshake_second_flight(ptr noundef %0) #0 {
  %2 = alloca ptr, align 8
  store ptr %0, ptr %2, align 8, !tbaa !3
  %3 = load ptr, ptr %2, align 8, !tbaa !3
  %4 = getelementptr inbounds nuw %struct.mbedtls_ssl_context, ptr %3, i32 0, i32 16
  %5 = load ptr, ptr %4, align 8, !tbaa !19
  %6 = getelementptr inbounds nuw %struct.mbedtls_ssl_handshake_params, ptr %5, i32 0, i32 3
  %7 = load i8, ptr %6, align 1, !tbaa !129
  %8 = icmp ne i8 %7, 0
  br i1 %8, label %9, label %11

9:                                                ; preds = %1
  %10 = load ptr, ptr %2, align 8, !tbaa !3
  call void @mbedtls_ssl_handshake_set_state(ptr noundef %10, i32 noundef 7)
  br label %15

11:                                               ; preds = %1
  %12 = load ptr, ptr %2, align 8, !tbaa !3
  call void (ptr, i32, ptr, i32, ptr, ...) @mbedtls_debug_print_msg(ptr noundef %12, i32 noundef 2, ptr noundef @.str, i32 noundef 2870, ptr noundef @.str.127)
  %13 = load ptr, ptr %2, align 8, !tbaa !3
  call void (ptr, i32, ptr, i32, ptr, ...) @mbedtls_debug_print_msg(ptr noundef %13, i32 noundef 2, ptr noundef @.str, i32 noundef 2871, ptr noundef @.str.5)
  %14 = load ptr, ptr %2, align 8, !tbaa !3
  call void @mbedtls_ssl_handshake_set_state(ptr noundef %14, i32 noundef 11)
  br label %15

15:                                               ; preds = %11, %9
  ret void
}

; Function Attrs: nounwind uwtable
define internal i32 @ssl_tls13_write_server_finished(ptr noundef %0) #0 {
  %2 = alloca i32, align 4
  %3 = alloca ptr, align 8
  %4 = alloca i32, align 4
  %5 = alloca i32, align 4
  store ptr %0, ptr %3, align 8, !tbaa !3
  call void @llvm.lifetime.start.p0(i64 4, ptr %4) #10
  store i32 -110, ptr %4, align 4, !tbaa !8
  %6 = load ptr, ptr %3, align 8, !tbaa !3
  %7 = call i32 @mbedtls_ssl_tls13_write_finished_message(ptr noundef %6)
  store i32 %7, ptr %4, align 4, !tbaa !8
  %8 = load i32, ptr %4, align 4, !tbaa !8
  %9 = icmp ne i32 %8, 0
  br i1 %9, label %10, label %12

10:                                               ; preds = %1
  %11 = load i32, ptr %4, align 4, !tbaa !8
  store i32 %11, ptr %2, align 4
  store i32 1, ptr %5, align 4
  br label %29

12:                                               ; preds = %1
  %13 = load ptr, ptr %3, align 8, !tbaa !3
  %14 = call i32 @mbedtls_ssl_tls13_compute_application_transform(ptr noundef %13)
  store i32 %14, ptr %4, align 4, !tbaa !8
  %15 = load i32, ptr %4, align 4, !tbaa !8
  %16 = icmp ne i32 %15, 0
  br i1 %16, label %17, label %20

17:                                               ; preds = %12
  %18 = load ptr, ptr %3, align 8, !tbaa !3
  call void @mbedtls_ssl_pend_fatal_alert(ptr noundef %18, i8 noundef zeroext 40, i32 noundef -28160)
  %19 = load i32, ptr %4, align 4, !tbaa !8
  store i32 %19, ptr %2, align 4
  store i32 1, ptr %5, align 4
  br label %29

20:                                               ; preds = %12
  %21 = load ptr, ptr %3, align 8, !tbaa !3
  call void (ptr, i32, ptr, i32, ptr, ...) @mbedtls_debug_print_msg(ptr noundef %21, i32 noundef 1, ptr noundef @.str, i32 noundef 2912, ptr noundef @.str.126)
  %22 = load ptr, ptr %3, align 8, !tbaa !3
  %23 = load ptr, ptr %3, align 8, !tbaa !3
  %24 = getelementptr inbounds nuw %struct.mbedtls_ssl_context, ptr %23, i32 0, i32 16
  %25 = load ptr, ptr %24, align 8, !tbaa !19
  %26 = getelementptr inbounds nuw %struct.mbedtls_ssl_handshake_params, ptr %25, i32 0, i32 69
  %27 = load ptr, ptr %26, align 8, !tbaa !47
  call void @mbedtls_ssl_set_inbound_transform(ptr noundef %22, ptr noundef %27)
  %28 = load ptr, ptr %3, align 8, !tbaa !3
  call void @ssl_tls13_prepare_for_handshake_second_flight(ptr noundef %28)
  store i32 0, ptr %2, align 4
  store i32 1, ptr %5, align 4
  br label %29

29:                                               ; preds = %20, %17, %10
  call void @llvm.lifetime.end.p0(i64 4, ptr %4) #10
  %30 = load i32, ptr %2, align 4
  ret i32 %30
}