; Function Attrs: nounwind uwtable
define internal fastcc i32 @ssl_tls13_write_server_finished(ptr noundef %0) unnamed_addr #0 {
  %2 = tail call i32 @mbedtls_ssl_tls13_write_finished_message(ptr noundef %0) #9
  %.not = icmp eq i32 %2, 0
  br i1 %.not, label %3, label %16

3:                                                ; preds = %1
  %4 = tail call i32 @mbedtls_ssl_tls13_compute_application_transform(ptr noundef %0) #9
  %.not13 = icmp eq i32 %4, 0
  br i1 %.not13, label %6, label %5

5:                                                ; preds = %3
  tail call void @mbedtls_ssl_pend_fatal_alert(ptr noundef %0, i8 noundef zeroext 40, i32 noundef -28160) #9
  br label %16

6:                                                ; preds = %3
  tail call void (ptr, i32, ptr, i32, ptr, ...) @mbedtls_debug_print_msg(ptr noundef %0, i32 noundef 1, ptr noundef nonnull @.str, i32 noundef 2912, ptr noundef nonnull @.str.126) #9
  %7 = getelementptr inbounds nuw i8, ptr %0, i64 112
  %8 = load ptr, ptr %7, align 8, !tbaa !16
  %9 = getelementptr inbounds nuw i8, ptr %8, i64 3296
  %10 = load ptr, ptr %9, align 8, !tbaa !76
  tail call void @mbedtls_ssl_set_inbound_transform(ptr noundef %0, ptr noundef %10) #9
  %11 = load ptr, ptr %7, align 8, !tbaa !16
  %12 = getelementptr inbounds nuw i8, ptr %11, i64 3
  %13 = load i8, ptr %12, align 1, !tbaa !80
  %.not.i = icmp eq i8 %13, 0
  br i1 %.not.i, label %14, label %ssl_tls13_prepare_for_handshake_second_flight.exit

14:                                               ; preds = %6
  tail call void (ptr, i32, ptr, i32, ptr, ...) @mbedtls_debug_print_msg(ptr noundef nonnull %0, i32 noundef 2, ptr noundef nonnull @.str, i32 noundef 2870, ptr noundef nonnull @.str.127) #9
  tail call void (ptr, i32, ptr, i32, ptr, ...) @mbedtls_debug_print_msg(ptr noundef nonnull %0, i32 noundef 2, ptr noundef nonnull @.str, i32 noundef 2871, ptr noundef nonnull @.str.5) #9
  br label %ssl_tls13_prepare_for_handshake_second_flight.exit

ssl_tls13_prepare_for_handshake_second_flight.exit: ; preds = %6, %14
  %.sink.i = phi i32 [ 11, %14 ], [ 7, %6 ]
  %15 = getelementptr inbounds nuw i8, ptr %0, i64 8
  store i32 %.sink.i, ptr %15, align 8, !tbaa !3
  br label %16

16:                                               ; preds = %1, %ssl_tls13_prepare_for_handshake_second_flight.exit, %5
  %.0 = phi i32 [ %4, %5 ], [ 0, %ssl_tls13_prepare_for_handshake_second_flight.exit ], [ %2, %1 ]
  ret i32 %.0
}